target datalayout = "e-m:e-p270:32:32-p271:32:32-p272:64:64-i64:64-i128:128-f80:128-n8:16:32:64-S128"
target triple = "x86_64-pc-linux-gnu"

%union.pthread_mutex_t = type { %struct.__pthread_mutex_s }
%struct.__pthread_mutex_s = type { i32, i32, i32, i32, i32, i16, i16, %struct.__pthread_internal_list }
%struct.__pthread_internal_list = type { ptr, ptr }
%struct.ccan_list_head = type { %struct.ccan_list_node }
%struct.ccan_list_node = type { ptr, ptr }
%struct.rb_thread_struct = type { %struct.ccan_list_node, i64, ptr, ptr, ptr, ptr, %struct.rb_thread_sched_item, i8, i32, i64, ptr, i64, i64, i8, i8, i32, ptr, i64, i64, i64, i64, %union.pthread_mutex_t, %struct.rb_unblock_callback, i64, ptr, %struct.ccan_list_head, ptr, %union.anon, i32, i64, ptr, i64, i32, i64, ptr, %struct.rb_ext_config }
%struct.rb_thread_sched_item = type { %struct.anon.7, %struct.rb_thread_sched_waiting, i8, i8, ptr, ptr }
%struct.anon.7 = type { %struct.ccan_list_node, %struct.ccan_list_node, %struct.ccan_list_node, %struct.ccan_list_node, %struct.ccan_list_node }
%struct.rb_thread_sched_waiting = type { i32, %struct.anon.8, %struct.ccan_list_node }
%struct.anon.8 = type { i64, i32, i32 }
%struct.rb_unblock_callback = type { ptr, ptr }
%union.anon = type { %struct.anon.9 }
%struct.anon.9 = type { i64, i64, i32 }
%struct.rb_ext_config = type { i8 }
%struct.rb_ractor_struct = type { %struct.rb_ractor_pub, %struct.rb_ractor_sync, i64, %union.pthread_cond_t, %struct.anon.16, i64, i64, i64, i32, %struct.ccan_list_node, ptr, ptr, i64, i64, i64, i64, i64, i64, ptr }
%struct.rb_ractor_pub = type { i64, i32, %struct.rb_hook_list_struct }
%struct.rb_hook_list_struct = type { ptr, i32, i32, i8, i8 }
%struct.rb_ractor_sync = type { %union.pthread_mutex_t, i8, i8, %struct.rb_ractor_queue, %struct.rb_ractor_queue, %struct.rb_ractor_basket, %struct.ractor_wait }
%struct.rb_ractor_queue = type { ptr, i32, i32, i32, i32, i32 }
%struct.rb_ractor_basket = type { %union.anon.12, i64, %union.anon.13 }
%union.anon.12 = type { i32 }
%union.anon.13 = type { %struct.anon.14 }
%struct.anon.14 = type { i64, i8 }
%struct.ractor_wait = type { i32, i32, ptr }
%union.pthread_cond_t = type { %struct.__pthread_cond_s }
%struct.__pthread_cond_s = type { %union.__atomic_wide_counter, %union.__atomic_wide_counter, [2 x i32], [2 x i32], i32, i32, [2 x i32] }
%union.__atomic_wide_counter = type { i64 }
%struct.anon.16 = type { %struct.ccan_list_head, i32, i32, i32, %struct.rb_thread_sched, ptr, ptr }
%struct.rb_thread_sched = type { %union.pthread_mutex_t, ptr, i8, i8, i8, %struct.ccan_list_head, i32, %struct.ccan_list_node }

@.str.15 = private unnamed_addr constant [20 x i8] c"../thread_pthread.c\00", align 1
@ruby_native_thread = internal thread_local global ptr null, align 8

; Function Attrs: inlinehint nounwind sspstrong uwtable
define internal void @rb_ractor_set_current_ec_(ptr noundef %0, ptr noundef %1, ptr noundef %2, i32 noundef %3) #1 {
  %5 = alloca ptr, align 8
  %6 = alloca ptr, align 8
  %7 = alloca ptr, align 8
  %8 = alloca i32, align 4
  store ptr %0, ptr %5, align 8, !tbaa !61
  store ptr %1, ptr %6, align 8, !tbaa !7
  store ptr %2, ptr %7, align 8, !tbaa !17
  store i32 %3, ptr %8, align 4, !tbaa !15
  %9 = load ptr, ptr %6, align 8, !tbaa !7
  call void @rb_current_ec_set(ptr noundef %9)
  %10 = load ptr, ptr %6, align 8, !tbaa !7
  %11 = load ptr, ptr %5, align 8, !tbaa !61
  %12 = getelementptr inbounds nuw %struct.rb_ractor_struct, ptr %11, i32 0, i32 4
  %13 = getelementptr inbounds nuw %struct.anon.16, ptr %12, i32 0, i32 5
  store ptr %10, ptr %13, align 8, !tbaa !138
  ret void
}

; Function Attrs: inlinehint nounwind sspstrong uwtable
define internal void @ccan_list_node_init(ptr noundef %0) #1 {
  %2 = alloca ptr, align 8
  store ptr %0, ptr %2, align 8, !tbaa !130
  %3 = load ptr, ptr %2, align 8, !tbaa !130
  %4 = load ptr, ptr %2, align 8, !tbaa !130
  %5 = getelementptr inbounds nuw %struct.ccan_list_node, ptr %4, i32 0, i32 1
  store ptr %3, ptr %5, align 8, !tbaa !137
  %6 = load ptr, ptr %2, align 8, !tbaa !130
  %7 = getelementptr inbounds nuw %struct.ccan_list_node, ptr %6, i32 0, i32 0
  store ptr %3, ptr %7, align 8, !tbaa !125
  ret void
}

; Function Attrs: nounwind sspstrong uwtable
define hidden i32 @ruby_thread_set_native(ptr noundef %0) #0 {
  %2 = alloca ptr, align 8
  store ptr %0, ptr %2, align 8, !tbaa !12
  %3 = load ptr, ptr %2, align 8, !tbaa !12
  %4 = icmp ne ptr %3, null
  br i1 %4, label %5, label %10

5:                                                ; preds = %1
  %6 = load ptr, ptr %2, align 8, !tbaa !12
  %7 = getelementptr inbounds nuw %struct.rb_thread_struct, ptr %6, i32 0, i32 6
  %8 = getelementptr inbounds nuw %struct.rb_thread_sched_item, ptr %7, i32 0, i32 0
  %9 = getelementptr inbounds nuw %struct.anon.7, ptr %8, i32 0, i32 0
  call void @ccan_list_node_init(ptr noundef %9)
  br label %10

10:                                               ; preds = %5, %1
  %11 = load ptr, ptr %2, align 8, !tbaa !12
  %12 = icmp ne ptr %11, null
  br i1 %12, label %13, label %25

13:                                               ; preds = %10
  %14 = load ptr, ptr %2, align 8, !tbaa !12
  %15 = getelementptr inbounds nuw %struct.rb_thread_struct, ptr %14, i32 0, i32 5
  %16 = load ptr, ptr %15, align 8, !tbaa !75
  %17 = icmp ne ptr %16, null
  br i1 %17, label %18, label %25

18:                                               ; preds = %13
  %19 = load ptr, ptr %2, align 8, !tbaa !12
  %20 = getelementptr inbounds nuw %struct.rb_thread_struct, ptr %19, i32 0, i32 2
  %21 = load ptr, ptr %20, align 8, !tbaa !27
  %22 = load ptr, ptr %2, align 8, !tbaa !12
  %23 = getelementptr inbounds nuw %struct.rb_thread_struct, ptr %22, i32 0, i32 5
  %24 = load ptr, ptr %23, align 8, !tbaa !75
  call void @rb_ractor_set_current_ec_(ptr noundef %21, ptr noundef %24, ptr noundef @.str.15, i32 noundef 1616)
  br label %25

25:                                               ; preds = %18, %13, %10
  %26 = load ptr, ptr %2, align 8, !tbaa !12
  %27 = call align 8 ptr @llvm.threadlocal.address.p0(ptr align 8 @ruby_native_thread)
  store ptr %26, ptr %27, align 8, !tbaa !12
  ret i32 1
}