; Function Attrs: nounwind sspstrong uwtable
define hidden noundef i32 @ruby_thread_set_native(ptr noundef %0) local_unnamed_addr #0 {
  %.not = icmp eq ptr %0, null
  br i1 %.not, label %.critedge, label %2

2:                                                ; preds = %1
  %3 = getelementptr inbounds nuw i8, ptr %0, i64 56
  %4 = getelementptr inbounds nuw i8, ptr %0, i64 64
  store ptr %3, ptr %4, align 8, !tbaa !83
  store ptr %3, ptr %3, align 8, !tbaa !84
  %5 = getelementptr inbounds nuw i8, ptr %0, i64 48
  %6 = load ptr, ptr %5, align 8, !tbaa !74
  %.not8 = icmp eq ptr %6, null
  br i1 %.not8, label %.critedge, label %7

7:                                                ; preds = %2
  %8 = getelementptr inbounds nuw i8, ptr %0, i64 24
  %9 = load ptr, ptr %8, align 8, !tbaa !52
  tail call void @rb_current_ec_set(ptr noundef nonnull %6) #17
  %10 = getelementptr inbounds nuw i8, ptr %9, i64 384
  store ptr %6, ptr %10, align 8, !tbaa !96
  br label %.critedge

.critedge:                                        ; preds = %1, %7, %2
  %11 = tail call align 8 ptr @llvm.threadlocal.address.p0(ptr align 8 @ruby_native_thread)
  store ptr %0, ptr %11, align 8, !tbaa !59
  ret i32 1
}